ARM GAS  C:\Users\LTC\AppData\Local\Temp\ccUhcnky.s 			page 1


   1              		.cpu cortex-m4
   2              		.eabi_attribute 27, 1
   3              		.eabi_attribute 28, 1
   4              		.eabi_attribute 20, 1
   5              		.eabi_attribute 21, 1
   6              		.eabi_attribute 23, 3
   7              		.eabi_attribute 24, 1
   8              		.eabi_attribute 25, 1
   9              		.eabi_attribute 26, 1
  10              		.eabi_attribute 30, 1
  11              		.eabi_attribute 34, 1
  12              		.eabi_attribute 18, 4
  13              		.file	"main.c"
  14              		.text
  15              	.Ltext0:
  16              		.cfi_sections	.debug_frame
  17              		.section	.text.SystemClock_Config,"ax",%progbits
  18              		.align	1
  19              		.global	SystemClock_Config
  20              		.arch armv7e-m
  21              		.syntax unified
  22              		.thumb
  23              		.thumb_func
  24              		.fpu fpv4-sp-d16
  26              	SystemClock_Config:
  27              	.LFB131:
  28              		.file 1 "Core/Src/main.c"
   1:Core/Src/main.c **** /* USER CODE BEGIN Header */
   2:Core/Src/main.c **** /**
   3:Core/Src/main.c ****   ******************************************************************************
   4:Core/Src/main.c ****   * @file           : main.c
   5:Core/Src/main.c ****   * @brief          : Main program body
   6:Core/Src/main.c ****   ******************************************************************************
   7:Core/Src/main.c ****   * @attention
   8:Core/Src/main.c ****   *
   9:Core/Src/main.c ****   * <h2><center>&copy; Copyright (c) 2020 STMicroelectronics.
  10:Core/Src/main.c ****   * All rights reserved.</center></h2>
  11:Core/Src/main.c ****   *
  12:Core/Src/main.c ****   * This software component is licensed by ST under BSD 3-Clause license,
  13:Core/Src/main.c ****   * the "License"; You may not use this file except in compliance with the
  14:Core/Src/main.c ****   * License. You may obtain a copy of the License at:
  15:Core/Src/main.c ****   *                        opensource.org/licenses/BSD-3-Clause
  16:Core/Src/main.c ****   *
  17:Core/Src/main.c ****   ******************************************************************************
  18:Core/Src/main.c ****   */
  19:Core/Src/main.c **** /* USER CODE END Header */
  20:Core/Src/main.c **** /* Includes ------------------------------------------------------------------*/
  21:Core/Src/main.c **** #include "main.h"
  22:Core/Src/main.c **** #include "gpio.h"
  23:Core/Src/main.c **** 
  24:Core/Src/main.c **** /* Private includes ----------------------------------------------------------*/
  25:Core/Src/main.c **** /* USER CODE BEGIN Includes */
  26:Core/Src/main.c **** 
  27:Core/Src/main.c **** /* USER CODE END Includes */
  28:Core/Src/main.c **** 
  29:Core/Src/main.c **** /* Private typedef -----------------------------------------------------------*/
  30:Core/Src/main.c **** /* USER CODE BEGIN PTD */
ARM GAS  C:\Users\LTC\AppData\Local\Temp\ccUhcnky.s 			page 2


  31:Core/Src/main.c **** 
  32:Core/Src/main.c **** /* USER CODE END PTD */
  33:Core/Src/main.c **** 
  34:Core/Src/main.c **** /* Private define ------------------------------------------------------------*/
  35:Core/Src/main.c **** /* USER CODE BEGIN PD */
  36:Core/Src/main.c **** /* USER CODE END PD */
  37:Core/Src/main.c **** 
  38:Core/Src/main.c **** /* Private macro -------------------------------------------------------------*/
  39:Core/Src/main.c **** /* USER CODE BEGIN PM */
  40:Core/Src/main.c **** 
  41:Core/Src/main.c **** /* USER CODE END PM */
  42:Core/Src/main.c **** 
  43:Core/Src/main.c **** /* Private variables ---------------------------------------------------------*/
  44:Core/Src/main.c **** 
  45:Core/Src/main.c **** /* USER CODE BEGIN PV */
  46:Core/Src/main.c **** 
  47:Core/Src/main.c **** /* USER CODE END PV */
  48:Core/Src/main.c **** 
  49:Core/Src/main.c **** /* Private function prototypes -----------------------------------------------*/
  50:Core/Src/main.c **** void SystemClock_Config(void);
  51:Core/Src/main.c **** /* USER CODE BEGIN PFP */
  52:Core/Src/main.c **** 
  53:Core/Src/main.c **** /* USER CODE END PFP */
  54:Core/Src/main.c **** 
  55:Core/Src/main.c **** /* Private user code ---------------------------------------------------------*/
  56:Core/Src/main.c **** /* USER CODE BEGIN 0 */
  57:Core/Src/main.c **** 
  58:Core/Src/main.c **** /* USER CODE END 0 */
  59:Core/Src/main.c **** 
  60:Core/Src/main.c **** /**
  61:Core/Src/main.c ****   * @brief  The application entry point.
  62:Core/Src/main.c ****   * @retval int
  63:Core/Src/main.c ****   */
  64:Core/Src/main.c **** int main(void)
  65:Core/Src/main.c **** {
  66:Core/Src/main.c ****   /* USER CODE BEGIN 1 */
  67:Core/Src/main.c **** 
  68:Core/Src/main.c ****   /* USER CODE END 1 */
  69:Core/Src/main.c **** 
  70:Core/Src/main.c ****   /* MCU Configuration--------------------------------------------------------*/
  71:Core/Src/main.c **** 
  72:Core/Src/main.c ****   /* Reset of all peripherals, Initializes the Flash interface and the Systick. */
  73:Core/Src/main.c ****   HAL_Init();
  74:Core/Src/main.c **** 
  75:Core/Src/main.c ****   /* USER CODE BEGIN Init */
  76:Core/Src/main.c **** 
  77:Core/Src/main.c ****   /* USER CODE END Init */
  78:Core/Src/main.c **** 
  79:Core/Src/main.c ****   /* Configure the system clock */
  80:Core/Src/main.c ****   SystemClock_Config();
  81:Core/Src/main.c **** 
  82:Core/Src/main.c ****   /* USER CODE BEGIN SysInit */
  83:Core/Src/main.c **** 
  84:Core/Src/main.c ****   /* USER CODE END SysInit */
  85:Core/Src/main.c **** 
  86:Core/Src/main.c ****   /* Initialize all configured peripherals */
  87:Core/Src/main.c ****   MX_GPIO_Init();
ARM GAS  C:\Users\LTC\AppData\Local\Temp\ccUhcnky.s 			page 3


  88:Core/Src/main.c ****   /* USER CODE BEGIN 2 */
  89:Core/Src/main.c **** 
  90:Core/Src/main.c ****   /* USER CODE END 2 */
  91:Core/Src/main.c **** 
  92:Core/Src/main.c ****   /* Infinite loop */
  93:Core/Src/main.c ****   /* USER CODE BEGIN WHILE */
  94:Core/Src/main.c ****   while (1)
  95:Core/Src/main.c ****   {
  96:Core/Src/main.c ****     
  97:Core/Src/main.c ****     /* USER CODE END WHILE */
  98:Core/Src/main.c **** 
  99:Core/Src/main.c ****     /* USER CODE BEGIN 3 */
 100:Core/Src/main.c ****     // HAL_GPIO_WritePin(GPIOE, LED2_Pin|LED3_Pin, GPIO_PIN_SET);
 101:Core/Src/main.c ****     // HAL_GPIO_WritePin(LED1_GPIO_Port, LED1_Pin, GPIO_PIN_SET);
 102:Core/Src/main.c ****     // HAL_Delay(1000);
 103:Core/Src/main.c **** 
 104:Core/Src/main.c ****     // HAL_GPIO_WritePin(GPIOE, LED2_Pin|LED3_Pin, GPIO_PIN_RESET);
 105:Core/Src/main.c ****     // HAL_GPIO_WritePin(LED1_GPIO_Port, LED1_Pin, GPIO_PIN_RESET);
 106:Core/Src/main.c ****     // HAL_Delay(1000);
 107:Core/Src/main.c ****     HAL_GPIO_TogglePin(LED1_GPIO_Port, LED1_Pin);
 108:Core/Src/main.c ****     HAL_Delay(1000);
 109:Core/Src/main.c ****   }
 110:Core/Src/main.c ****   /* USER CODE END 3 */
 111:Core/Src/main.c **** }
 112:Core/Src/main.c **** 
 113:Core/Src/main.c **** /**
 114:Core/Src/main.c ****   * @brief System Clock Configuration
 115:Core/Src/main.c ****   * @retval None
 116:Core/Src/main.c ****   */
 117:Core/Src/main.c **** void SystemClock_Config(void)
 118:Core/Src/main.c **** {
  29              		.loc 1 118 1 view -0
  30              		.cfi_startproc
  31              		@ args = 0, pretend = 0, frame = 80
  32              		@ frame_needed = 0, uses_anonymous_args = 0
  33 0000 70B5     		push	{r4, r5, r6, lr}
  34              	.LCFI0:
  35              		.cfi_def_cfa_offset 16
  36              		.cfi_offset 4, -16
  37              		.cfi_offset 5, -12
  38              		.cfi_offset 6, -8
  39              		.cfi_offset 14, -4
  40 0002 94B0     		sub	sp, sp, #80
  41              	.LCFI1:
  42              		.cfi_def_cfa_offset 96
 119:Core/Src/main.c ****   RCC_OscInitTypeDef RCC_OscInitStruct = {0};
  43              		.loc 1 119 3 view .LVU1
  44              		.loc 1 119 22 is_stmt 0 view .LVU2
  45 0004 3022     		movs	r2, #48
  46 0006 0021     		movs	r1, #0
  47 0008 08A8     		add	r0, sp, #32
  48 000a FFF7FEFF 		bl	memset
  49              	.LVL0:
 120:Core/Src/main.c ****   RCC_ClkInitTypeDef RCC_ClkInitStruct = {0};
  50              		.loc 1 120 3 is_stmt 1 view .LVU3
  51              		.loc 1 120 22 is_stmt 0 view .LVU4
  52 000e 0024     		movs	r4, #0
ARM GAS  C:\Users\LTC\AppData\Local\Temp\ccUhcnky.s 			page 4


  53 0010 0394     		str	r4, [sp, #12]
  54 0012 0494     		str	r4, [sp, #16]
  55 0014 0594     		str	r4, [sp, #20]
  56 0016 0694     		str	r4, [sp, #24]
  57 0018 0794     		str	r4, [sp, #28]
 121:Core/Src/main.c **** 
 122:Core/Src/main.c ****   /** Configure the main internal regulator output voltage
 123:Core/Src/main.c ****   */
 124:Core/Src/main.c ****   __HAL_RCC_PWR_CLK_ENABLE();
  58              		.loc 1 124 3 is_stmt 1 view .LVU5
  59              	.LBB2:
  60              		.loc 1 124 3 view .LVU6
  61 001a 0194     		str	r4, [sp, #4]
  62              		.loc 1 124 3 view .LVU7
  63 001c 1C4B     		ldr	r3, .L3
  64 001e 1A6C     		ldr	r2, [r3, #64]
  65 0020 42F08052 		orr	r2, r2, #268435456
  66 0024 1A64     		str	r2, [r3, #64]
  67              		.loc 1 124 3 view .LVU8
  68 0026 1B6C     		ldr	r3, [r3, #64]
  69 0028 03F08053 		and	r3, r3, #268435456
  70 002c 0193     		str	r3, [sp, #4]
  71              		.loc 1 124 3 view .LVU9
  72 002e 019B     		ldr	r3, [sp, #4]
  73              	.LBE2:
  74              		.loc 1 124 3 view .LVU10
 125:Core/Src/main.c ****   __HAL_PWR_VOLTAGESCALING_CONFIG(PWR_REGULATOR_VOLTAGE_SCALE1);
  75              		.loc 1 125 3 view .LVU11
  76              	.LBB3:
  77              		.loc 1 125 3 view .LVU12
  78 0030 0294     		str	r4, [sp, #8]
  79              		.loc 1 125 3 view .LVU13
  80 0032 184B     		ldr	r3, .L3+4
  81 0034 1A68     		ldr	r2, [r3]
  82 0036 42F48042 		orr	r2, r2, #16384
  83 003a 1A60     		str	r2, [r3]
  84              		.loc 1 125 3 view .LVU14
  85 003c 1B68     		ldr	r3, [r3]
  86 003e 03F48043 		and	r3, r3, #16384
  87 0042 0293     		str	r3, [sp, #8]
  88              		.loc 1 125 3 view .LVU15
  89 0044 029B     		ldr	r3, [sp, #8]
  90              	.LBE3:
  91              		.loc 1 125 3 view .LVU16
 126:Core/Src/main.c ****   /** Initializes the RCC Oscillators according to the specified parameters
 127:Core/Src/main.c ****   * in the RCC_OscInitTypeDef structure.
 128:Core/Src/main.c ****   */
 129:Core/Src/main.c ****   RCC_OscInitStruct.OscillatorType = RCC_OSCILLATORTYPE_HSE;
  92              		.loc 1 129 3 view .LVU17
  93              		.loc 1 129 36 is_stmt 0 view .LVU18
  94 0046 0126     		movs	r6, #1
  95 0048 0896     		str	r6, [sp, #32]
 130:Core/Src/main.c ****   RCC_OscInitStruct.HSEState = RCC_HSE_ON;
  96              		.loc 1 130 3 is_stmt 1 view .LVU19
  97              		.loc 1 130 30 is_stmt 0 view .LVU20
  98 004a 4FF48033 		mov	r3, #65536
  99 004e 0993     		str	r3, [sp, #36]
ARM GAS  C:\Users\LTC\AppData\Local\Temp\ccUhcnky.s 			page 5


 131:Core/Src/main.c ****   RCC_OscInitStruct.PLL.PLLState = RCC_PLL_ON;
 100              		.loc 1 131 3 is_stmt 1 view .LVU21
 101              		.loc 1 131 34 is_stmt 0 view .LVU22
 102 0050 0225     		movs	r5, #2
 103 0052 0E95     		str	r5, [sp, #56]
 132:Core/Src/main.c ****   RCC_OscInitStruct.PLL.PLLSource = RCC_PLLSOURCE_HSE;
 104              		.loc 1 132 3 is_stmt 1 view .LVU23
 105              		.loc 1 132 35 is_stmt 0 view .LVU24
 106 0054 4FF48003 		mov	r3, #4194304
 107 0058 0F93     		str	r3, [sp, #60]
 133:Core/Src/main.c ****   RCC_OscInitStruct.PLL.PLLM = 25;
 108              		.loc 1 133 3 is_stmt 1 view .LVU25
 109              		.loc 1 133 30 is_stmt 0 view .LVU26
 110 005a 1923     		movs	r3, #25
 111 005c 1093     		str	r3, [sp, #64]
 134:Core/Src/main.c ****   RCC_OscInitStruct.PLL.PLLN = 336;
 112              		.loc 1 134 3 is_stmt 1 view .LVU27
 113              		.loc 1 134 30 is_stmt 0 view .LVU28
 114 005e 4FF4A873 		mov	r3, #336
 115 0062 1193     		str	r3, [sp, #68]
 135:Core/Src/main.c ****   RCC_OscInitStruct.PLL.PLLP = RCC_PLLP_DIV2;
 116              		.loc 1 135 3 is_stmt 1 view .LVU29
 117              		.loc 1 135 30 is_stmt 0 view .LVU30
 118 0064 1295     		str	r5, [sp, #72]
 136:Core/Src/main.c ****   RCC_OscInitStruct.PLL.PLLQ = 4;
 119              		.loc 1 136 3 is_stmt 1 view .LVU31
 120              		.loc 1 136 30 is_stmt 0 view .LVU32
 121 0066 0423     		movs	r3, #4
 122 0068 1393     		str	r3, [sp, #76]
 137:Core/Src/main.c ****   if (HAL_RCC_OscConfig(&RCC_OscInitStruct) != HAL_OK)
 123              		.loc 1 137 3 is_stmt 1 view .LVU33
 124              		.loc 1 137 7 is_stmt 0 view .LVU34
 125 006a 08A8     		add	r0, sp, #32
 126 006c FFF7FEFF 		bl	HAL_RCC_OscConfig
 127              	.LVL1:
 138:Core/Src/main.c ****   {
 139:Core/Src/main.c ****     Error_Handler();
 140:Core/Src/main.c ****   }
 141:Core/Src/main.c ****   /** Initializes the CPU, AHB and APB buses clocks
 142:Core/Src/main.c ****   */
 143:Core/Src/main.c ****   RCC_ClkInitStruct.ClockType = RCC_CLOCKTYPE_HCLK|RCC_CLOCKTYPE_SYSCLK
 128              		.loc 1 143 3 is_stmt 1 view .LVU35
 129              		.loc 1 143 31 is_stmt 0 view .LVU36
 130 0070 0F23     		movs	r3, #15
 131 0072 0393     		str	r3, [sp, #12]
 144:Core/Src/main.c ****                               |RCC_CLOCKTYPE_PCLK1|RCC_CLOCKTYPE_PCLK2;
 145:Core/Src/main.c ****   RCC_ClkInitStruct.SYSCLKSource = RCC_SYSCLKSOURCE_PLLCLK;
 132              		.loc 1 145 3 is_stmt 1 view .LVU37
 133              		.loc 1 145 34 is_stmt 0 view .LVU38
 134 0074 0495     		str	r5, [sp, #16]
 146:Core/Src/main.c ****   RCC_ClkInitStruct.AHBCLKDivider = RCC_SYSCLK_DIV4;
 135              		.loc 1 146 3 is_stmt 1 view .LVU39
 136              		.loc 1 146 35 is_stmt 0 view .LVU40
 137 0076 9023     		movs	r3, #144
 138 0078 0593     		str	r3, [sp, #20]
 147:Core/Src/main.c ****   RCC_ClkInitStruct.APB1CLKDivider = RCC_HCLK_DIV1;
 139              		.loc 1 147 3 is_stmt 1 view .LVU41
ARM GAS  C:\Users\LTC\AppData\Local\Temp\ccUhcnky.s 			page 6


 140              		.loc 1 147 36 is_stmt 0 view .LVU42
 141 007a 0694     		str	r4, [sp, #24]
 148:Core/Src/main.c ****   RCC_ClkInitStruct.APB2CLKDivider = RCC_HCLK_DIV1;
 142              		.loc 1 148 3 is_stmt 1 view .LVU43
 143              		.loc 1 148 36 is_stmt 0 view .LVU44
 144 007c 0794     		str	r4, [sp, #28]
 149:Core/Src/main.c **** 
 150:Core/Src/main.c ****   if (HAL_RCC_ClockConfig(&RCC_ClkInitStruct, FLASH_LATENCY_1) != HAL_OK)
 145              		.loc 1 150 3 is_stmt 1 view .LVU45
 146              		.loc 1 150 7 is_stmt 0 view .LVU46
 147 007e 3146     		mov	r1, r6
 148 0080 03A8     		add	r0, sp, #12
 149 0082 FFF7FEFF 		bl	HAL_RCC_ClockConfig
 150              	.LVL2:
 151:Core/Src/main.c ****   {
 152:Core/Src/main.c ****     Error_Handler();
 153:Core/Src/main.c ****   }
 154:Core/Src/main.c ****   /** Enables the Clock Security System
 155:Core/Src/main.c ****   */
 156:Core/Src/main.c ****   HAL_RCC_EnableCSS();
 151              		.loc 1 156 3 is_stmt 1 view .LVU47
 152 0086 FFF7FEFF 		bl	HAL_RCC_EnableCSS
 153              	.LVL3:
 157:Core/Src/main.c **** }
 154              		.loc 1 157 1 is_stmt 0 view .LVU48
 155 008a 14B0     		add	sp, sp, #80
 156              	.LCFI2:
 157              		.cfi_def_cfa_offset 16
 158              		@ sp needed
 159 008c 70BD     		pop	{r4, r5, r6, pc}
 160              	.L4:
 161 008e 00BF     		.align	2
 162              	.L3:
 163 0090 00380240 		.word	1073887232
 164 0094 00700040 		.word	1073770496
 165              		.cfi_endproc
 166              	.LFE131:
 168              		.section	.text.main,"ax",%progbits
 169              		.align	1
 170              		.global	main
 171              		.syntax unified
 172              		.thumb
 173              		.thumb_func
 174              		.fpu fpv4-sp-d16
 176              	main:
 177              	.LFB130:
  65:Core/Src/main.c ****   /* USER CODE BEGIN 1 */
 178              		.loc 1 65 1 is_stmt 1 view -0
 179              		.cfi_startproc
 180              		@ Volatile: function does not return.
 181              		@ args = 0, pretend = 0, frame = 0
 182              		@ frame_needed = 0, uses_anonymous_args = 0
 183 0000 08B5     		push	{r3, lr}
 184              	.LCFI3:
 185              		.cfi_def_cfa_offset 8
 186              		.cfi_offset 3, -8
 187              		.cfi_offset 14, -4
ARM GAS  C:\Users\LTC\AppData\Local\Temp\ccUhcnky.s 			page 7


  73:Core/Src/main.c **** 
 188              		.loc 1 73 3 view .LVU50
 189 0002 FFF7FEFF 		bl	HAL_Init
 190              	.LVL4:
  80:Core/Src/main.c **** 
 191              		.loc 1 80 3 view .LVU51
 192 0006 FFF7FEFF 		bl	SystemClock_Config
 193              	.LVL5:
  87:Core/Src/main.c ****   /* USER CODE BEGIN 2 */
 194              		.loc 1 87 3 view .LVU52
 195 000a FFF7FEFF 		bl	MX_GPIO_Init
 196              	.LVL6:
 197              	.L6:
  94:Core/Src/main.c ****   {
 198              		.loc 1 94 3 discriminator 1 view .LVU53
 107:Core/Src/main.c ****     HAL_Delay(1000);
 199              		.loc 1 107 5 discriminator 1 view .LVU54
 200 000e 4FF40071 		mov	r1, #512
 201 0012 0448     		ldr	r0, .L8
 202 0014 FFF7FEFF 		bl	HAL_GPIO_TogglePin
 203              	.LVL7:
 108:Core/Src/main.c ****   }
 204              		.loc 1 108 5 discriminator 1 view .LVU55
 205 0018 4FF47A70 		mov	r0, #1000
 206 001c FFF7FEFF 		bl	HAL_Delay
 207              	.LVL8:
  94:Core/Src/main.c ****   {
 208              		.loc 1 94 9 discriminator 1 view .LVU56
 209 0020 F5E7     		b	.L6
 210              	.L9:
 211 0022 00BF     		.align	2
 212              	.L8:
 213 0024 001C0240 		.word	1073880064
 214              		.cfi_endproc
 215              	.LFE130:
 217              		.section	.text.Error_Handler,"ax",%progbits
 218              		.align	1
 219              		.global	Error_Handler
 220              		.syntax unified
 221              		.thumb
 222              		.thumb_func
 223              		.fpu fpv4-sp-d16
 225              	Error_Handler:
 226              	.LFB132:
 158:Core/Src/main.c **** 
 159:Core/Src/main.c **** /* USER CODE BEGIN 4 */
 160:Core/Src/main.c **** 
 161:Core/Src/main.c **** /* USER CODE END 4 */
 162:Core/Src/main.c **** 
 163:Core/Src/main.c **** /**
 164:Core/Src/main.c ****   * @brief  This function is executed in case of error occurrence.
 165:Core/Src/main.c ****   * @retval None
 166:Core/Src/main.c ****   */
 167:Core/Src/main.c **** void Error_Handler(void)
 168:Core/Src/main.c **** {
 227              		.loc 1 168 1 view -0
 228              		.cfi_startproc
ARM GAS  C:\Users\LTC\AppData\Local\Temp\ccUhcnky.s 			page 8


 229              		@ args = 0, pretend = 0, frame = 0
 230              		@ frame_needed = 0, uses_anonymous_args = 0
 231              		@ link register save eliminated.
 169:Core/Src/main.c ****   /* USER CODE BEGIN Error_Handler_Debug */
 170:Core/Src/main.c ****   /* User can add his own implementation to report the HAL error return state */
 171:Core/Src/main.c **** 
 172:Core/Src/main.c ****   /* USER CODE END Error_Handler_Debug */
 173:Core/Src/main.c **** }
 232              		.loc 1 173 1 view .LVU58
 233 0000 7047     		bx	lr
 234              		.cfi_endproc
 235              	.LFE132:
 237              		.text
 238              	.Letext0:
 239              		.file 2 "c:\\program files (x86)\\gnu tools arm embedded\\9 2019-q4-major\\arm-none-eabi\\include\
 240              		.file 3 "c:\\program files (x86)\\gnu tools arm embedded\\9 2019-q4-major\\arm-none-eabi\\include\
 241              		.file 4 "Drivers/CMSIS/Include/core_cm4.h"
 242              		.file 5 "Drivers/CMSIS/Device/ST/STM32F4xx/Include/system_stm32f4xx.h"
 243              		.file 6 "Drivers/CMSIS/Device/ST/STM32F4xx/Include/stm32f407xx.h"
 244              		.file 7 "Drivers/STM32F4xx_HAL_Driver/Inc/stm32f4xx_hal_rcc_ex.h"
 245              		.file 8 "Drivers/STM32F4xx_HAL_Driver/Inc/stm32f4xx_hal_rcc.h"
 246              		.file 9 "Drivers/STM32F4xx_HAL_Driver/Inc/stm32f4xx_hal_def.h"
 247              		.file 10 "Drivers/STM32F4xx_HAL_Driver/Inc/stm32f4xx_hal.h"
 248              		.file 11 "Core/Inc/gpio.h"
 249              		.file 12 "Drivers/STM32F4xx_HAL_Driver/Inc/stm32f4xx_hal_gpio.h"
 250              		.file 13 "<built-in>"
ARM GAS  C:\Users\LTC\AppData\Local\Temp\ccUhcnky.s 			page 9

